target datalayout = "e-m:e-p270:32:32-p271:32:32-p272:64:64-i64:64-i128:128-f80:128-n8:16:32:64-S128"
target triple = "x86_64-pc-linux-gnu"

%"class.std::stack" = type { %"class.std::deque" }
%"class.std::deque" = type { %"class.std::_Deque_base" }
%"class.std::_Deque_base" = type { %"struct.std::_Deque_base<Json::Value *, std::allocator<Json::Value *>>::_Deque_impl" }
%"struct.std::_Deque_base<Json::Value *, std::allocator<Json::Value *>>::_Deque_impl" = type { %"struct.std::_Deque_base<Json::Value *, std::allocator<Json::Value *>>::_Deque_impl_data" }
%"struct.std::_Deque_base<Json::Value *, std::allocator<Json::Value *>>::_Deque_impl_data" = type { ptr, i64, %"struct.std::_Deque_iterator", %"struct.std::_Deque_iterator" }
%"struct.std::_Deque_iterator" = type { ptr, ptr, ptr, ptr }
%"class.std::__cxx11::basic_string" = type { %"struct.std::__cxx11::basic_string<char>::_Alloc_hider", i64, %union.anon }
%"struct.std::__cxx11::basic_string<char>::_Alloc_hider" = type { ptr }
%union.anon = type { i64, [8 x i8] }
%"class.Json::OurFeatures" = type { i8, i8, i8, i8, i8, i8, i8, i8, i8, i8, i64 }
%"class.Json::OurReader" = type <{ %"class.std::stack", %"class.std::deque.17", %"class.std::__cxx11::basic_string", ptr, ptr, ptr, ptr, ptr, i8, [7 x i8], %"class.std::__cxx11::basic_string", %"class.Json::OurFeatures", i8, [7 x i8] }>
%"class.std::deque.17" = type { %"class.std::_Deque_base.18" }
%"class.std::_Deque_base.18" = type { %"struct.std::_Deque_base<Json::OurReader::ErrorInfo, std::allocator<Json::OurReader::ErrorInfo>>::_Deque_impl" }
%"struct.std::_Deque_base<Json::OurReader::ErrorInfo, std::allocator<Json::OurReader::ErrorInfo>>::_Deque_impl" = type { %"struct.std::_Deque_base<Json::OurReader::ErrorInfo, std::allocator<Json::OurReader::ErrorInfo>>::_Deque_impl_data" }
%"struct.std::_Deque_base<Json::OurReader::ErrorInfo, std::allocator<Json::OurReader::ErrorInfo>>::_Deque_impl_data" = type { ptr, i64, %"struct.std::_Deque_iterator.22", %"struct.std::_Deque_iterator.22" }
%"struct.std::_Deque_iterator.22" = type { ptr, ptr, ptr, ptr }

; Function Attrs: mustprogress nounwind uwtable
define dso_local noundef zeroext i1 @_ZN4Json9OurReader10readNumberEb(ptr noundef nonnull align 8 dereferenceable(297) %0, i1 noundef zeroext %1) #4 align 2 {
  %3 = alloca i1, align 1
  %4 = alloca ptr, align 8
  %5 = alloca i8, align 1
  %6 = alloca ptr, align 8
  %7 = alloca i8, align 1
  store ptr %0, ptr %4, align 8
  %8 = zext i1 %1 to i8
  store i8 %8, ptr %5, align 1
  %9 = load ptr, ptr %4, align 8
  %10 = getelementptr inbounds %"class.Json::OurReader", ptr %9, i32 0, i32 5
  %11 = load ptr, ptr %10, align 8
  store ptr %11, ptr %6, align 8
  %12 = load i8, ptr %5, align 1
  %13 = trunc i8 %12 to i1
  br i1 %13, label %14, label %28

14:                                               ; preds = %2
  %15 = load ptr, ptr %6, align 8
  %16 = getelementptr inbounds %"class.Json::OurReader", ptr %9, i32 0, i32 4
  %17 = load ptr, ptr %16, align 8
  %18 = icmp ne ptr %15, %17
  br i1 %18, label %19, label %28

19:                                               ; preds = %14
  %20 = load ptr, ptr %6, align 8
  %21 = load i8, ptr %20, align 1
  %22 = sext i8 %21 to i32
  %23 = icmp eq i32 %22, 73
  br i1 %23, label %24, label %28

24:                                               ; preds = %19
  %25 = load ptr, ptr %6, align 8
  %26 = getelementptr inbounds i8, ptr %25, i32 1
  store ptr %26, ptr %6, align 8
  %27 = getelementptr inbounds %"class.Json::OurReader", ptr %9, i32 0, i32 5
  store ptr %26, ptr %27, align 8
  store i1 false, ptr %3, align 1
  br label %160

28:                                               ; preds = %19, %14, %2
  store i8 48, ptr %7, align 1
  br label %29

29:                                               ; preds = %50, %28
  %30 = load i8, ptr %7, align 1
  %31 = sext i8 %30 to i32
  %32 = icmp sge i32 %31, 48
  br i1 %32, label %33, label %37

33:                                               ; preds = %29
  %34 = load i8, ptr %7, align 1
  %35 = sext i8 %34 to i32
  %36 = icmp sle i32 %35, 57
  br label %37

37:                                               ; preds = %33, %29
  %38 = phi i1 [ false, %29 ], [ %36, %33 ]
  br i1 %38, label %39, label %52

39:                                               ; preds = %37
  %40 = load ptr, ptr %6, align 8
  %41 = getelementptr inbounds %"class.Json::OurReader", ptr %9, i32 0, i32 5
  store ptr %40, ptr %41, align 8
  %42 = getelementptr inbounds %"class.Json::OurReader", ptr %9, i32 0, i32 4
  %43 = load ptr, ptr %42, align 8
  %44 = icmp ult ptr %40, %43
  br i1 %44, label %45, label %49

45:                                               ; preds = %39
  %46 = load ptr, ptr %6, align 8
  %47 = getelementptr inbounds i8, ptr %46, i32 1
  store ptr %47, ptr %6, align 8
  %48 = load i8, ptr %46, align 1
  br label %50

49:                                               ; preds = %39
  br label %50

50:                                               ; preds = %49, %45
  %51 = phi i8 [ %48, %45 ], [ 0, %49 ]
  store i8 %51, ptr %7, align 1
  br label %29, !llvm.loop !37

52:                                               ; preds = %37
  %53 = load i8, ptr %7, align 1
  %54 = sext i8 %53 to i32
  %55 = icmp eq i32 %54, 46
  br i1 %55, label %56, label %93

56:                                               ; preds = %52
  %57 = load ptr, ptr %6, align 8
  %58 = getelementptr inbounds %"class.Json::OurReader", ptr %9, i32 0, i32 5
  store ptr %57, ptr %58, align 8
  %59 = getelementptr inbounds %"class.Json::OurReader", ptr %9, i32 0, i32 4
  %60 = load ptr, ptr %59, align 8
  %61 = icmp ult ptr %57, %60
  br i1 %61, label %62, label %66

62:                                               ; preds = %56
  %63 = load ptr, ptr %6, align 8
  %64 = getelementptr inbounds i8, ptr %63, i32 1
  store ptr %64, ptr %6, align 8
  %65 = load i8, ptr %63, align 1
  br label %67

66:                                               ; preds = %56
  br label %67

67:                                               ; preds = %66, %62
  %68 = phi i8 [ %65, %62 ], [ 0, %66 ]
  store i8 %68, ptr %7, align 1
  br label %69

69:                                               ; preds = %90, %67
  %70 = load i8, ptr %7, align 1
  %71 = sext i8 %70 to i32
  %72 = icmp sge i32 %71, 48
  br i1 %72, label %73, label %77

73:                                               ; preds = %69
  %74 = load i8, ptr %7, align 1
  %75 = sext i8 %74 to i32
  %76 = icmp sle i32 %75, 57
  br label %77

77:                                               ; preds = %73, %69
  %78 = phi i1 [ false, %69 ], [ %76, %73 ]
  br i1 %78, label %79, label %92

79:                                               ; preds = %77
  %80 = load ptr, ptr %6, align 8
  %81 = getelementptr inbounds %"class.Json::OurReader", ptr %9, i32 0, i32 5
  store ptr %80, ptr %81, align 8
  %82 = getelementptr inbounds %"class.Json::OurReader", ptr %9, i32 0, i32 4
  %83 = load ptr, ptr %82, align 8
  %84 = icmp ult ptr %80, %83
  br i1 %84, label %85, label %89

85:                                               ; preds = %79
  %86 = load ptr, ptr %6, align 8
  %87 = getelementptr inbounds i8, ptr %86, i32 1
  store ptr %87, ptr %6, align 8
  %88 = load i8, ptr %86, align 1
  br label %90

89:                                               ; preds = %79
  br label %90

90:                                               ; preds = %89, %85
  %91 = phi i8 [ %88, %85 ], [ 0, %89 ]
  store i8 %91, ptr %7, align 1
  br label %69, !llvm.loop !38

92:                                               ; preds = %77
  br label %93

93:                                               ; preds = %92, %52
  %94 = load i8, ptr %7, align 1
  %95 = sext i8 %94 to i32
  %96 = icmp eq i32 %95, 101
  br i1 %96, label %101, label %97

97:                                               ; preds = %93
  %98 = load i8, ptr %7, align 1
  %99 = sext i8 %98 to i32
  %100 = icmp eq i32 %99, 69
  br i1 %100, label %101, label %159

101:                                              ; preds = %97, %93
  %102 = load ptr, ptr %6, align 8
  %103 = getelementptr inbounds %"class.Json::OurReader", ptr %9, i32 0, i32 5
  store ptr %102, ptr %103, align 8
  %104 = getelementptr inbounds %"class.Json::OurReader", ptr %9, i32 0, i32 4
  %105 = load ptr, ptr %104, align 8
  %106 = icmp ult ptr %102, %105
  br i1 %106, label %107, label %111

107:                                              ; preds = %101
  %108 = load ptr, ptr %6, align 8
  %109 = getelementptr inbounds i8, ptr %108, i32 1
  store ptr %109, ptr %6, align 8
  %110 = load i8, ptr %108, align 1
  br label %112

111:                                              ; preds = %101
  br label %112

112:                                              ; preds = %111, %107
  %113 = phi i8 [ %110, %107 ], [ 0, %111 ]
  store i8 %113, ptr %7, align 1
  %114 = load i8, ptr %7, align 1
  %115 = sext i8 %114 to i32
  %116 = icmp eq i32 %115, 43
  br i1 %116, label %121, label %117

117:                                              ; preds = %112
  %118 = load i8, ptr %7, align 1
  %119 = sext i8 %118 to i32
  %120 = icmp eq i32 %119, 45
  br i1 %120, label %121, label %134

121:                                              ; preds = %117, %112
  %122 = load ptr, ptr %6, align 8
  %123 = getelementptr inbounds %"class.Json::OurReader", ptr %9, i32 0, i32 5
  store ptr %122, ptr %123, align 8
  %124 = getelementptr inbounds %"class.Json::OurReader", ptr %9, i32 0, i32 4
  %125 = load ptr, ptr %124, align 8
  %126 = icmp ult ptr %122, %125
  br i1 %126, label %127, label %131

127:                                              ; preds = %121
  %128 = load ptr, ptr %6, align 8
  %129 = getelementptr inbounds i8, ptr %128, i32 1
  store ptr %129, ptr %6, align 8
  %130 = load i8, ptr %128, align 1
  br label %132

131:                                              ; preds = %121
  br label %132

132:                                              ; preds = %131, %127
  %133 = phi i8 [ %130, %127 ], [ 0, %131 ]
  store i8 %133, ptr %7, align 1
  br label %134

134:                                              ; preds = %132, %117
  br label %135

135:                                              ; preds = %156, %134
  %136 = load i8, ptr %7, align 1
  %137 = sext i8 %136 to i32
  %138 = icmp sge i32 %137, 48
  br i1 %138, label %139, label %143

139:                                              ; preds = %135
  %140 = load i8, ptr %7, align 1
  %141 = sext i8 %140 to i32
  %142 = icmp sle i32 %141, 57
  br label %143

143:                                              ; preds = %139, %135
  %144 = phi i1 [ false, %135 ], [ %142, %139 ]
  br i1 %144, label %145, label %158

145:                                              ; preds = %143
  %146 = load ptr, ptr %6, align 8
  %147 = getelementptr inbounds %"class.Json::OurReader", ptr %9, i32 0, i32 5
  store ptr %146, ptr %147, align 8
  %148 = getelementptr inbounds %"class.Json::OurReader", ptr %9, i32 0, i32 4
  %149 = load ptr, ptr %148, align 8
  %150 = icmp ult ptr %146, %149
  br i1 %150, label %151, label %155

151:                                              ; preds = %145
  %152 = load ptr, ptr %6, align 8
  %153 = getelementptr inbounds i8, ptr %152, i32 1
  store ptr %153, ptr %6, align 8
  %154 = load i8, ptr %152, align 1
  br label %156

155:                                              ; preds = %145
  br label %156

156:                                              ; preds = %155, %151
  %157 = phi i8 [ %154, %151 ], [ 0, %155 ]
  store i8 %157, ptr %7, align 1
  br label %135, !llvm.loop !39

158:                                              ; preds = %143
  br label %159

159:                                              ; preds = %158, %97
  store i1 true, ptr %3, align 1
  br label %160

160:                                              ; preds = %159, %24
  %161 = load i1, ptr %3, align 1
  ret i1 %161
}