; Function Attrs: mustprogress nofree norecurse nosync nounwind memory(read, argmem: readwrite, inaccessiblemem: none) uwtable
define dso_local noundef zeroext i1 @_ZN4Json9OurReader10readNumberEb(ptr nocapture noundef nonnull align 8 dereferenceable(297) %0, i1 noundef zeroext %1) local_unnamed_addr #10 align 2 {
  %3 = getelementptr inbounds i8, ptr %0, i64 208
  %4 = load ptr, ptr %3, align 8
  %5 = getelementptr inbounds i8, ptr %0, i64 200
  %6 = load ptr, ptr %5, align 8
  %.not = icmp ne ptr %4, %6
  %or.cond42.not = select i1 %1, i1 %.not, i1 false
  br i1 %or.cond42.not, label %7, label %.preheader

.preheader:                                       ; preds = %7, %2
  br label %12

7:                                                ; preds = %2
  %8 = load i8, ptr %4, align 1
  %9 = icmp eq i8 %8, 73
  br i1 %9, label %10, label %.preheader

10:                                               ; preds = %7
  %11 = getelementptr inbounds i8, ptr %4, i64 1
  store ptr %11, ptr %3, align 8
  br label %.loopexit

12:                                               ; preds = %.preheader, %14
  %.03345 = phi ptr [ %15, %14 ], [ %4, %.preheader ]
  store ptr %.03345, ptr %3, align 8
  %13 = icmp ult ptr %.03345, %6
  br i1 %13, label %14, label %.loopexit

14:                                               ; preds = %12
  %15 = getelementptr inbounds i8, ptr %.03345, i64 1
  %16 = load i8, ptr %.03345, align 1
  %17 = add i8 %16, -48
  %18 = icmp ult i8 %17, 10
  br i1 %18, label %12, label %19, !llvm.loop !293

19:                                               ; preds = %14
  %20 = icmp eq i8 %16, 46
  br i1 %20, label %21, label %.loopexit44

21:                                               ; preds = %19
  store ptr %15, ptr %3, align 8
  %22 = icmp ult ptr %15, %6
  br i1 %22, label %23, label %.loopexit

23:                                               ; preds = %21
  %24 = getelementptr inbounds i8, ptr %.03345, i64 2
  %25 = load i8, ptr %15, align 1
  %26 = add i8 %25, -48
  %27 = icmp ult i8 %26, 10
  br i1 %27, label %.lr.ph, label %.loopexit44

.lr.ph:                                           ; preds = %23, %29
  %.33646 = phi ptr [ %30, %29 ], [ %24, %23 ]
  store ptr %.33646, ptr %3, align 8
  %28 = icmp ult ptr %.33646, %6
  br i1 %28, label %29, label %.loopexit

29:                                               ; preds = %.lr.ph
  %30 = getelementptr inbounds i8, ptr %.33646, i64 1
  %31 = load i8, ptr %.33646, align 1
  %32 = add i8 %31, -48
  %33 = icmp ult i8 %32, 10
  br i1 %33, label %.lr.ph, label %.loopexit44, !llvm.loop !294

.loopexit44:                                      ; preds = %29, %23, %19
  %.5 = phi ptr [ %15, %19 ], [ %24, %23 ], [ %30, %29 ]
  %.2 = phi i8 [ %16, %19 ], [ %25, %23 ], [ %31, %29 ]
  %34 = and i8 %.2, -33
  %or.cond = icmp eq i8 %34, 69
  br i1 %or.cond, label %35, label %.loopexit

35:                                               ; preds = %.loopexit44
  store ptr %.5, ptr %3, align 8
  %36 = icmp ult ptr %.5, %6
  br i1 %36, label %37, label %.loopexit

37:                                               ; preds = %35
  %38 = getelementptr inbounds i8, ptr %.5, i64 1
  %39 = load i8, ptr %.5, align 1
  switch i8 %39, label %.thread [
    i8 45, label %40
    i8 43, label %40
  ]

40:                                               ; preds = %37, %37
  store ptr %38, ptr %3, align 8
  %41 = icmp ult ptr %38, %6
  br i1 %41, label %42, label %.loopexit

42:                                               ; preds = %40
  %43 = getelementptr inbounds i8, ptr %.5, i64 2
  %44 = load i8, ptr %38, align 1
  br label %.thread

.thread:                                          ; preds = %42, %37
  %.8 = phi ptr [ %38, %37 ], [ %43, %42 ]
  %.3 = phi i8 [ %39, %37 ], [ %44, %42 ]
  %45 = add i8 %.3, -48
  %46 = icmp ult i8 %45, 10
  br i1 %46, label %.lr.ph49, label %.loopexit

.lr.ph49:                                         ; preds = %.thread, %48
  %.948 = phi ptr [ %49, %48 ], [ %.8, %.thread ]
  store ptr %.948, ptr %3, align 8
  %47 = icmp ult ptr %.948, %6
  br i1 %47, label %48, label %.loopexit

48:                                               ; preds = %.lr.ph49
  %49 = getelementptr inbounds i8, ptr %.948, i64 1
  %50 = load i8, ptr %.948, align 1
  %51 = add i8 %50, -48
  %52 = icmp ult i8 %51, 10
  br i1 %52, label %.lr.ph49, label %.loopexit, !llvm.loop !295

.loopexit:                                        ; preds = %12, %.lr.ph, %.lr.ph49, %48, %35, %40, %21, %.thread, %.loopexit44, %10
  %.038 = phi i1 [ false, %10 ], [ true, %.loopexit44 ], [ true, %.thread ], [ true, %21 ], [ true, %40 ], [ true, %35 ], [ true, %48 ], [ true, %.lr.ph49 ], [ true, %.lr.ph ], [ true, %12 ]
  ret i1 %.038
}